target datalayout = "e-m:e-p270:32:32-p271:32:32-p272:64:64-i64:64-i128:128-f80:128-n8:16:32:64-S128"
target triple = "x86_64-pc-linux-gnu"

%struct.slurm_conf_t = type { i64, ptr, i16, ptr, ptr, ptr, ptr, ptr, i16, ptr, ptr, ptr, ptr, ptr, ptr, ptr, i16, ptr, ptr, ptr, ptr, i16, ptr, ptr, ptr, i64, ptr, ptr, ptr, ptr, i16, ptr, ptr, i16, i32, ptr, i32, ptr, i32, i32, ptr, ptr, i64, i64, ptr, i16, i16, ptr, i32, i32, ptr, i32, ptr, i32, i16, i16, i16, ptr, i16, i16, ptr, ptr, i32, i16, i16, ptr, i32, i16, ptr, ptr, ptr, ptr, i16, ptr, ptr, ptr, ptr, i32, ptr, ptr, ptr, ptr, i16, i16, ptr, i32, i32, i32, i16, i16, ptr, ptr, i16, ptr, ptr, i32, i32, i32, i32, i32, i64, i32, i32, i16, ptr, ptr, i32, ptr, ptr, ptr, i16, i32, ptr, ptr, i16, ptr, ptr, i32, i16, ptr, ptr, ptr, ptr, i32, i32, i16, i16, i32, ptr, i16, ptr, i32, i32, i32, i32, i32, i32, ptr, i16, ptr, ptr, i32, i16, ptr, i32, i16, i16, ptr, ptr, ptr, i16, ptr, ptr, ptr, ptr, i16, i16, ptr, i16, ptr, i16, ptr, i16, ptr, i16, ptr, ptr, ptr, ptr, i16, ptr, ptr, ptr, i32, ptr, i32, ptr, ptr, i16, ptr, ptr, i32, i16, ptr, ptr, i16, i16, ptr, i16, ptr, ptr, ptr, i32, ptr, i16, i16, ptr, ptr, ptr, ptr, ptr, ptr, ptr, ptr, i16, i32, i16, ptr, ptr, ptr, ptr, i32, ptr, ptr, ptr, i16, ptr, ptr, ptr, i16, ptr, i16, ptr, i16, i16, ptr }
%struct.job_step_info_response_msg = type { i64, i32, ptr, ptr }
%struct.job_step_info_t = type { i32, i32, ptr, ptr, ptr, i32, i32, i32, ptr, ptr, ptr, ptr, ptr, ptr, i32, i32, ptr, ptr, i64, ptr, i32, i64, i16, i32, %struct.slurm_step_id_msg, ptr, i32, i32, ptr, ptr, ptr, ptr, ptr, ptr, ptr, i32 }
%struct.slurm_step_id_msg = type { i64, i32, i32, i32 }
%struct.slurm_msg = type { %struct.sockaddr_storage, ptr, i32, i32, i32, i8, i32, i8, i32, ptr, ptr, i32, ptr, ptr, i16, i8, i16, i16, %struct.forward, ptr, %struct.sockaddr_storage, ptr }
%struct.forward = type { %struct.slurm_node_alias_addrs_t, i16, i16, ptr, i32, i16, i16 }
%struct.slurm_node_alias_addrs_t = type { i64, ptr, ptr, i32, ptr }
%struct.sockaddr_storage = type { i16, [118 x i8], i64 }
%struct.job_step_info_request_msg = type { i64, %struct.slurm_step_id_msg, i16 }
%struct.stepmgr_job_info_t = type { i32, ptr }

@slurm_conf = external global %struct.slurm_conf_t, align 8
@.str.27 = private unnamed_addr constant [16 x i8] c"job_step_info.c\00", align 1
@__func__._get_stepmgr_steps = private unnamed_addr constant [19 x i8] c"_get_stepmgr_steps\00", align 1

; Function Attrs: nounwind uwtable
define internal i32 @_get_stepmgr_steps(ptr noundef %0, ptr noundef %1) #0 {
  %3 = alloca i32, align 4
  %4 = alloca ptr, align 8
  %5 = alloca ptr, align 8
  %6 = alloca ptr, align 8
  %7 = alloca %struct.slurm_msg, align 8
  %8 = alloca ptr, align 8
  %9 = alloca %struct.slurm_msg, align 8
  %10 = alloca ptr, align 8
  %11 = alloca %struct.job_step_info_request_msg, align 8
  %12 = alloca i32, align 4
  %13 = alloca i32, align 4
  %14 = alloca ptr, align 8
  store ptr %0, ptr %4, align 8
  store ptr %1, ptr %5, align 8
  call void @llvm.lifetime.start.p0(i64 8, ptr %6) #8
  %15 = load ptr, ptr %4, align 8
  store ptr %15, ptr %6, align 8
  call void @llvm.lifetime.start.p0(i64 424, ptr %7) #8
  call void @slurm_msg_t_init(ptr noundef %7)
  call void @llvm.lifetime.start.p0(i64 8, ptr %8) #8
  %16 = load ptr, ptr %5, align 8
  store ptr %16, ptr %8, align 8
  call void @llvm.lifetime.start.p0(i64 424, ptr %9) #8
  call void @slurm_msg_t_init(ptr noundef %9)
  %17 = load i32, ptr getelementptr inbounds nuw (%struct.slurm_conf_t, ptr @slurm_conf, i32 0, i32 175), align 8
  call void @slurm_msg_set_r_uid(ptr noundef %9, i32 noundef %17)
  %18 = load ptr, ptr %6, align 8
  %19 = getelementptr inbounds nuw %struct.stepmgr_job_info_t, ptr %18, i32 0, i32 1
  %20 = load ptr, ptr %19, align 8
  %21 = getelementptr inbounds nuw %struct.slurm_msg, ptr %9, i32 0, i32 0
  %22 = getelementptr inbounds nuw %struct.slurm_msg, ptr %9, i32 0, i32 14
  %23 = load i16, ptr %22, align 8
  %24 = call i32 @slurm_conf_get_addr(ptr noundef %20, ptr noundef %21, i16 noundef zeroext %23)
  %25 = icmp ne i32 %24, 0
  br i1 %25, label %26, label %49

26:                                               ; preds = %2
  call void @llvm.lifetime.start.p0(i64 8, ptr %10) #8
  store ptr null, ptr %10, align 8
  %27 = load ptr, ptr %6, align 8
  %28 = getelementptr inbounds nuw %struct.stepmgr_job_info_t, ptr %27, i32 0, i32 1
  %29 = load ptr, ptr %28, align 8
  %30 = call i32 @slurm_get_node_alias_addrs(ptr noundef %29, ptr noundef %10)
  %31 = icmp ne i32 %30, 0
  br i1 %31, label %48, label %32

32:                                               ; preds = %26
  %33 = load ptr, ptr %10, align 8
  %34 = getelementptr inbounds nuw %struct.slurm_node_alias_addrs_t, ptr %33, i32 0, i32 4
  %35 = load ptr, ptr %34, align 8
  %36 = load ptr, ptr %10, align 8
  %37 = getelementptr inbounds nuw %struct.slurm_node_alias_addrs_t, ptr %36, i32 0, i32 2
  %38 = load ptr, ptr %37, align 8
  %39 = call i32 @add_remote_nodes_to_conf_tbls(ptr noundef %35, ptr noundef %38)
  %40 = load ptr, ptr %10, align 8
  call void @slurm_free_node_alias_addrs(ptr noundef %40)
  %41 = load ptr, ptr %6, align 8
  %42 = getelementptr inbounds nuw %struct.stepmgr_job_info_t, ptr %41, i32 0, i32 1
  %43 = load ptr, ptr %42, align 8
  %44 = getelementptr inbounds nuw %struct.slurm_msg, ptr %9, i32 0, i32 0
  %45 = getelementptr inbounds nuw %struct.slurm_msg, ptr %9, i32 0, i32 14
  %46 = load i16, ptr %45, align 8
  %47 = call i32 @slurm_conf_get_addr(ptr noundef %43, ptr noundef %44, i16 noundef zeroext %46)
  br label %48

48:                                               ; preds = %32, %26
  call void @llvm.lifetime.end.p0(i64 8, ptr %10) #8
  br label %49

49:                                               ; preds = %48, %2
  call void @llvm.lifetime.start.p0(i64 40, ptr %11) #8
  call void @llvm.memset.p0.i64(ptr align 8 %11, i8 0, i64 40, i1 false)
  %50 = load ptr, ptr %6, align 8
  %51 = getelementptr inbounds nuw %struct.stepmgr_job_info_t, ptr %50, i32 0, i32 0
  %52 = load i32, ptr %51, align 8
  %53 = getelementptr inbounds nuw %struct.job_step_info_request_msg, ptr %11, i32 0, i32 1
  %54 = getelementptr inbounds nuw %struct.slurm_step_id_msg, ptr %53, i32 0, i32 1
  store i32 %52, ptr %54, align 8
  %55 = getelementptr inbounds nuw %struct.job_step_info_request_msg, ptr %11, i32 0, i32 1
  %56 = getelementptr inbounds nuw %struct.slurm_step_id_msg, ptr %55, i32 0, i32 3
  store i32 -2, ptr %56, align 8
  %57 = getelementptr inbounds nuw %struct.job_step_info_request_msg, ptr %11, i32 0, i32 1
  %58 = getelementptr inbounds nuw %struct.slurm_step_id_msg, ptr %57, i32 0, i32 2
  store i32 -2, ptr %58, align 4
  %59 = getelementptr inbounds nuw %struct.slurm_msg, ptr %9, i32 0, i32 16
  store i16 2005, ptr %59, align 4
  %60 = getelementptr inbounds nuw %struct.slurm_msg, ptr %9, i32 0, i32 13
  store ptr %11, ptr %60, align 8
  %61 = call i32 @slurm_send_recv_node_msg(ptr noundef %9, ptr noundef %7, i32 noundef 0)
  %62 = icmp ne i32 %61, 0
  br i1 %62, label %63, label %64

63:                                               ; preds = %49
  store i32 -1, ptr %3, align 4
  store i32 1, ptr %12, align 4
  br label %115

64:                                               ; preds = %49
  %65 = getelementptr inbounds nuw %struct.slurm_msg, ptr %7, i32 0, i32 16
  %66 = load i16, ptr %65, align 4
  %67 = zext i16 %66 to i32
  %68 = icmp eq i32 %67, 2006
  br i1 %68, label %69, label %114

69:                                               ; preds = %64
  call void @llvm.lifetime.start.p0(i64 4, ptr %13) #8
  call void @llvm.lifetime.start.p0(i64 8, ptr %14) #8
  %70 = getelementptr inbounds nuw %struct.slurm_msg, ptr %7, i32 0, i32 13
  %71 = load ptr, ptr %70, align 8
  store ptr %71, ptr %14, align 8
  %72 = load ptr, ptr %8, align 8
  %73 = getelementptr inbounds nuw %struct.job_step_info_response_msg, ptr %72, i32 0, i32 1
  %74 = load i32, ptr %73, align 8
  %75 = load ptr, ptr %14, align 8
  %76 = getelementptr inbounds nuw %struct.job_step_info_response_msg, ptr %75, i32 0, i32 1
  %77 = load i32, ptr %76, align 8
  %78 = add i32 %74, %77
  store i32 %78, ptr %13, align 4
  %79 = load ptr, ptr %14, align 8
  %80 = getelementptr inbounds nuw %struct.job_step_info_response_msg, ptr %79, i32 0, i32 1
  %81 = load i32, ptr %80, align 8
  %82 = icmp ne i32 %81, 0
  br i1 %82, label %83, label %113

83:                                               ; preds = %69
  %84 = load ptr, ptr %8, align 8
  %85 = getelementptr inbounds nuw %struct.job_step_info_response_msg, ptr %84, i32 0, i32 2
  %86 = load i32, ptr %13, align 4
  %87 = zext i32 %86 to i64
  %88 = mul i64 264, %87
  %89 = call ptr @slurm_xrecalloc(ptr noundef %85, i64 noundef 1, i64 noundef %88, i1 noundef zeroext true, i1 noundef zeroext false, ptr noundef @.str.27, i32 noundef 357, ptr noundef @__func__._get_stepmgr_steps)
  %90 = load ptr, ptr %8, align 8
  %91 = getelementptr inbounds nuw %struct.job_step_info_response_msg, ptr %90, i32 0, i32 2
  store ptr %89, ptr %91, align 8
  %92 = load ptr, ptr %8, align 8
  %93 = getelementptr inbounds nuw %struct.job_step_info_response_msg, ptr %92, i32 0, i32 2
  %94 = load ptr, ptr %93, align 8
  %95 = load ptr, ptr %8, align 8
  %96 = getelementptr inbounds nuw %struct.job_step_info_response_msg, ptr %95, i32 0, i32 1
  %97 = load i32, ptr %96, align 8
  %98 = zext i32 %97 to i64
  %99 = getelementptr inbounds nuw %struct.job_step_info_t, ptr %94, i64 %98
  %100 = load ptr, ptr %14, align 8
  %101 = getelementptr inbounds nuw %struct.job_step_info_response_msg, ptr %100, i32 0, i32 2
  %102 = load ptr, ptr %101, align 8
  %103 = load ptr, ptr %14, align 8
  %104 = getelementptr inbounds nuw %struct.job_step_info_response_msg, ptr %103, i32 0, i32 1
  %105 = load i32, ptr %104, align 8
  %106 = zext i32 %105 to i64
  %107 = mul i64 264, %106
  call void @llvm.memcpy.p0.p0.i64(ptr align 8 %99, ptr align 8 %102, i64 %107, i1 false)
  %108 = load i32, ptr %13, align 4
  %109 = load ptr, ptr %8, align 8
  %110 = getelementptr inbounds nuw %struct.job_step_info_response_msg, ptr %109, i32 0, i32 1
  store i32 %108, ptr %110, align 8
  %111 = load ptr, ptr %14, align 8
  %112 = getelementptr inbounds nuw %struct.job_step_info_response_msg, ptr %111, i32 0, i32 2
  call void @slurm_xfree(ptr noundef %112)
  call void @slurm_xfree(ptr noundef %14)
  br label %113

113:                                              ; preds = %83, %69
  call void @llvm.lifetime.end.p0(i64 8, ptr %14) #8
  call void @llvm.lifetime.end.p0(i64 4, ptr %13) #8
  br label %114

114:                                              ; preds = %113, %64
  store i32 0, ptr %3, align 4
  store i32 1, ptr %12, align 4
  br label %115

115:                                              ; preds = %114, %63
  call void @llvm.lifetime.end.p0(i64 40, ptr %11) #8
  call void @llvm.lifetime.end.p0(i64 424, ptr %9) #8
  call void @llvm.lifetime.end.p0(i64 8, ptr %8) #8
  call void @llvm.lifetime.end.p0(i64 424, ptr %7) #8
  call void @llvm.lifetime.end.p0(i64 8, ptr %6) #8
  %116 = load i32, ptr %3, align 4
  ret i32 %116
}