; Function Attrs: nounwind uwtable
define internal range(i32 -1, 1) i32 @_get_stepmgr_steps(ptr noundef readonly captures(none) %0, ptr noundef %1) #0 {
  %3 = alloca %struct.slurm_msg, align 8
  %4 = alloca %struct.slurm_msg, align 8
  %5 = alloca ptr, align 8
  %6 = alloca %struct.job_step_info_request_msg, align 8
  %7 = alloca ptr, align 8
  call void @llvm.lifetime.start.p0(i64 424, ptr nonnull %3) #11
  call void @slurm_msg_t_init(ptr noundef nonnull %3) #11
  call void @llvm.lifetime.start.p0(i64 424, ptr nonnull %4) #11
  call void @slurm_msg_t_init(ptr noundef nonnull %4) #11
  %8 = load i32, ptr getelementptr inbounds nuw (i8, ptr @slurm_conf, i64 1168), align 8
  call void @slurm_msg_set_r_uid(ptr noundef nonnull %4, i32 noundef %8) #11
  %9 = getelementptr inbounds nuw i8, ptr %0, i64 8
  %10 = load ptr, ptr %9, align 8
  %11 = getelementptr inbounds nuw i8, ptr %4, i64 208
  %12 = load i16, ptr %11, align 8
  %13 = call i32 @slurm_conf_get_addr(ptr noundef %10, ptr noundef nonnull %4, i16 noundef zeroext %12) #11
  %.not = icmp eq i32 %13, 0
  br i1 %.not, label %29, label %14

14:                                               ; preds = %2
  call void @llvm.lifetime.start.p0(i64 8, ptr nonnull %5) #11
  store ptr null, ptr %5, align 8
  %15 = load ptr, ptr %9, align 8
  %16 = call i32 @slurm_get_node_alias_addrs(ptr noundef %15, ptr noundef nonnull %5) #11
  %.not14 = icmp eq i32 %16, 0
  br i1 %.not14, label %17, label %28

17:                                               ; preds = %14
  %18 = load ptr, ptr %5, align 8
  %19 = getelementptr inbounds nuw i8, ptr %18, i64 32
  %20 = load ptr, ptr %19, align 8
  %21 = getelementptr inbounds nuw i8, ptr %18, i64 16
  %22 = load ptr, ptr %21, align 8
  %23 = call i32 @add_remote_nodes_to_conf_tbls(ptr noundef %20, ptr noundef %22) #11
  %24 = load ptr, ptr %5, align 8
  call void @slurm_free_node_alias_addrs(ptr noundef %24) #11
  %25 = load ptr, ptr %9, align 8
  %26 = load i16, ptr %11, align 8
  %27 = call i32 @slurm_conf_get_addr(ptr noundef %25, ptr noundef nonnull %4, i16 noundef zeroext %26) #11
  br label %28

28:                                               ; preds = %17, %14
  call void @llvm.lifetime.end.p0(i64 8, ptr nonnull %5) #11
  br label %29

29:                                               ; preds = %28, %2
  call void @llvm.lifetime.start.p0(i64 40, ptr nonnull %6) #11
  call void @llvm.memset.p0.i64(ptr noundef nonnull align 8 dereferenceable(40) %6, i8 0, i64 40, i1 false)
  %30 = load i32, ptr %0, align 8
  %31 = getelementptr inbounds nuw i8, ptr %6, i64 16
  store i32 %30, ptr %31, align 8
  %32 = getelementptr inbounds nuw i8, ptr %6, i64 24
  store i32 -2, ptr %32, align 8
  %33 = getelementptr inbounds nuw i8, ptr %6, i64 20
  store i32 -2, ptr %33, align 4
  %34 = getelementptr inbounds nuw i8, ptr %4, i64 212
  store i16 2005, ptr %34, align 4
  %35 = getelementptr inbounds nuw i8, ptr %4, i64 200
  store ptr %6, ptr %35, align 8
  %36 = call i32 @slurm_send_recv_node_msg(ptr noundef nonnull %4, ptr noundef nonnull %3, i32 noundef 0) #11
  %.not15 = icmp eq i32 %36, 0
  br i1 %.not15, label %37, label %63

37:                                               ; preds = %29
  %38 = getelementptr inbounds nuw i8, ptr %3, i64 212
  %39 = load i16, ptr %38, align 4
  %40 = icmp eq i16 %39, 2006
  br i1 %40, label %41, label %63

41:                                               ; preds = %37
  call void @llvm.lifetime.start.p0(i64 8, ptr nonnull %7) #11
  %42 = getelementptr inbounds nuw i8, ptr %3, i64 200
  %43 = load ptr, ptr %42, align 8
  store ptr %43, ptr %7, align 8
  %44 = getelementptr inbounds nuw i8, ptr %43, i64 8
  %45 = load i32, ptr %44, align 8
  %.not16 = icmp eq i32 %45, 0
  br i1 %.not16, label %62, label %46

46:                                               ; preds = %41
  %47 = getelementptr inbounds nuw i8, ptr %1, i64 8
  %48 = load i32, ptr %47, align 8
  %49 = add i32 %48, %45
  %50 = getelementptr inbounds nuw i8, ptr %1, i64 16
  %51 = zext i32 %49 to i64
  %52 = mul nuw nsw i64 %51, 264
  %53 = call ptr @slurm_xrecalloc(ptr noundef nonnull %50, i64 noundef 1, i64 noundef %52, i1 noundef zeroext true, i1 noundef zeroext false, ptr noundef nonnull @.str.27, i32 noundef 357, ptr noundef nonnull @__func__._get_stepmgr_steps) #11
  store ptr %53, ptr %50, align 8
  %54 = load i32, ptr %47, align 8
  %55 = zext i32 %54 to i64
  %56 = getelementptr inbounds nuw %struct.job_step_info_t, ptr %53, i64 %55
  %57 = getelementptr inbounds nuw i8, ptr %43, i64 16
  %58 = load ptr, ptr %57, align 8
  %59 = load i32, ptr %44, align 8
  %60 = zext i32 %59 to i64
  %61 = mul nuw nsw i64 %60, 264
  call void @llvm.memcpy.p0.p0.i64(ptr align 8 %56, ptr align 8 %58, i64 %61, i1 false)
  store i32 %49, ptr %47, align 8
  call void @slurm_xfree(ptr noundef nonnull %57) #11
  call void @slurm_xfree(ptr noundef nonnull %7) #11
  br label %62

62:                                               ; preds = %46, %41
  call void @llvm.lifetime.end.p0(i64 8, ptr nonnull %7) #11
  br label %63

63:                                               ; preds = %37, %62, %29
  %.0 = phi i32 [ -1, %29 ], [ 0, %62 ], [ 0, %37 ]
  call void @llvm.lifetime.end.p0(i64 40, ptr nonnull %6) #11
  call void @llvm.lifetime.end.p0(i64 424, ptr nonnull %4) #11
  call void @llvm.lifetime.end.p0(i64 424, ptr nonnull %3) #11
  ret i32 %.0
}